Certificate:
    Data:
        Version: 1 (0x0)
        Serial Number: 1 (0x1)
    Signature Algorithm: sha256WithRSAEncryption
        Issuer: C=JP, O=Usacloud, OU=Usacloud Certificate Authority, CN=Usacloud TLS CA
        Validity
            Not Before: Jun 26 13:09:29 2021 GMT
            Not After : Jun 21 13:09:29 2041 GMT
        Subject: C=JP, O=Usacloud, OU=Usacloud Certificate Authority, CN=Usacloud TLS CA
        Subject Public Key Info:
            Public Key Algorithm: rsaEncryption
                Public-Key: (4096 bit)
                Modulus:
                    00:a6:b5:fe:18:a6:3c:b8:dc:8a:43:83:69:5d:e0:
                    f8:da:53:4e:fe:85:98:bf:72:bc:c5:ad:1b:da:59:
                    83:8b:b8:be:0b:d3:71:62:59:67:05:16:ad:2a:6d:
                    49:b1:b1:16:38:8f:a0:52:53:71:36:8e:f9:4d:f2:
                    2c:4a:80:2b:35:22:22:c7:e4:1c:42:8b:67:da:12:
                    c8:ef:db:c7:51:29:b6:97:6c:cb:ab:73:6b:62:2d:
                    ff:f7:f6:bf:0e:c9:47:42:aa:d6:7c:70:cf:c5:f1:
                    88:89:f8:55:04:de:d2:55:ac:66:95:64:18:e5:52:
                    db:43:a4:d1:5e:07:35:3a:96:d1:84:3e:fb:da:aa:
                    b1:db:54:5d:55:c3:bd:29:2c:3f:9c:6c:ea:8f:e5:
                    55:f4:07:de:02:e5:6b:03:b0:13:e8:5b:65:04:0d:
                    3d:6a:41:8b:aa:0f:a6:e1:aa:dd:2b:ae:4c:29:1d:
                    93:6b:08:e0:44:5a:67:30:46:07:2b:16:9a:c7:96:
                    17:53:5c:ac:90:85:9d:23:f9:38:df:4c:26:e4:bf:
                    02:d7:42:48:02:22:41:41:04:b1:1d:4c:7d:c8:c6:
                    ec:de:36:5d:31:dd:c7:a0:e1:a0:40:21:74:c2:c0:
                    eb:b9:b8:09:af:ec:24:37:a1:8e:77:26:c3:0d:85:
                    e2:41:50:8c:59:40:97:97:ee:d5:e6:f2:51:04:60:
                    95:54:15:1a:fd:16:11:14:b6:d9:de:25:bf:e5:05:
                    a7:b0:c6:37:dc:23:36:2c:37:2b:87:20:a1:7c:8f:
                    f7:60:2a:be:94:ae:b4:96:09:8e:83:31:2f:c7:af:
                    87:b9:8b:d0:e3:1f:94:fc:68:9d:36:bc:4a:f0:8a:
                    58:e8:44:e7:9e:80:6a:2b:1f:84:5e:bd:01:8d:33:
                    10:ff:2f:7c:d5:86:5a:90:68:d4:58:f2:f2:b2:5b:
                    d5:6c:13:17:11:a5:c3:38:14:f8:06:45:7b:20:e2:
                    99:a9:99:38:07:c2:06:33:5e:2a:c1:47:7a:89:ea:
                    6f:dc:7a:b4:95:d2:f7:e3:6f:46:d8:17:a9:06:82:
                    be:63:1b:7c:17:2f:fd:e4:a5:a3:11:e2:6e:69:55:
                    5a:42:41:0b:82:c8:55:8d:22:db:89:6f:b8:ba:dc:
                    ea:98:33:c3:b4:ce:91:cf:05:b5:52:34:6f:22:21:
                    6e:78:54:fc:6b:f1:0e:c7:e9:4d:80:76:fe:f5:d2:
                    30:09:51:6a:b7:84:63:b7:92:08:33:3f:b7:c0:ef:
                    4b:f2:f4:a8:9f:71:0a:fa:17:36:38:ab:59:be:ee:
                    d8:5a:b1:2e:5d:28:a3:ca:67:3c:91:7a:99:a9:aa:
                    d9:62:b5
                Exponent: 65537 (0x10001)
    Signature Algorithm: sha256WithRSAEncryption
         11:20:a9:96:58:d4:0c:45:56:0a:32:70:1f:36:2a:18:25:a8:
         2d:54:b9:90:94:0d:9e:e7:b1:0c:ac:5d:07:e3:e0:2b:9d:bd:
         fe:ed:cd:1d:65:ac:9a:16:75:ea:bb:b1:e0:a4:84:64:2d:bb:
         11:dd:e4:6a:b4:18:f5:78:0c:0e:e6:86:58:26:05:7e:5c:55:
         be:52:df:48:b0:45:02:83:c1:67:57:bd:3b:db:5c:f3:9c:37:
         86:4b:ab:22:84:74:a9:61:80:7f:e3:35:e4:d5:a2:9a:cb:fc:
         a6:d0:a8:e6:ad:c5:0b:72:d8:bd:03:b9:35:2e:a7:27:3f:da:
         c2:1f:5b:f3:d6:9b:9b:44:af:51:71:d9:59:87:89:52:6c:c9:
         ec:e4:ce:93:83:50:3d:77:69:f8:1d:c9:75:57:a9:23:a8:64:
         0d:49:d8:b1:4b:3b:b9:eb:8f:6f:d5:63:40:f9:af:a3:f3:e6:
         18:81:69:52:18:78:58:48:60:0a:ac:53:72:ee:d0:3b:6e:a4:
         fe:fa:dc:04:c8:50:19:9a:43:ef:6a:3c:14:3f:a8:82:21:a6:
         7e:13:65:1c:57:88:9a:c4:77:bd:8a:0d:5b:ee:b9:23:bd:9a:
         f5:e0:8f:b3:7d:c0:1a:2a:71:bd:8f:e1:68:ec:3a:06:6d:85:
         d5:bb:72:4e:64:3c:7d:3b:d0:4b:c6:82:b0:67:29:b6:b5:01:
         d3:1b:f5:e6:e1:dc:47:8c:8f:31:fc:08:be:bb:7a:4a:9a:4e:
         d7:de:7d:bb:66:c9:1c:93:7e:31:67:8b:47:61:48:55:3d:62:
         77:f2:74:6d:22:aa:05:33:56:8a:39:48:3c:ea:b9:e2:d3:70:
         fa:58:cb:65:ab:45:ad:fb:e4:22:27:bc:58:7a:4c:a3:c5:51:
         02:cd:67:81:2f:ab:5d:2d:c9:9f:0a:28:8d:93:ca:9a:63:fd:
         a1:f2:9a:77:bd:ae:d2:89:a1:82:23:45:d0:0a:14:87:b8:8f:
         7f:f7:4a:7f:ac:85:e3:32:3b:01:63:b3:46:57:df:12:10:3d:
         8b:4c:dc:fa:82:cc:bd:43:74:d2:7d:27:c6:57:d5:1a:a7:42:
         f8:c2:db:13:bd:46:07:b1:2b:97:3c:b1:aa:e4:2b:e7:63:29:
         85:55:9d:36:ee:f3:4b:17:34:9b:71:88:57:0f:fe:1c:dd:fe:
         5e:29:62:38:7f:0c:86:e7:e9:49:73:28:e1:3e:c8:e5:bc:a7:
         b3:fa:ce:66:f3:f2:f1:7a:8c:c5:a3:d6:fb:c3:46:13:62:07:
         b8:6d:bd:61:f2:ec:82:5d:de:07:09:4e:1c:04:54:37:c1:18:
         a7:9e:de:ff:f3:85:60:e4
-----BEGIN CERTIFICATE-----
MIIFOjCCAyICAQEwDQYJKoZIhvcNAQELBQAwYzELMAkGA1UEBhMCSlAxETAPBgNV
BAoMCFVzYWNsb3VkMScwJQYDVQQLDB5Vc2FjbG91ZCBDZXJ0aWZpY2F0ZSBBdXRo
b3JpdHkxGDAWBgNVBAMMD1VzYWNsb3VkIFRMUyBDQTAeFw0yMTA2MjYxMzA5Mjla
Fw00MTA2MjExMzA5MjlaMGMxCzAJBgNVBAYTAkpQMREwDwYDVQQKDAhVc2FjbG91
ZDEnMCUGA1UECwweVXNhY2xvdWQgQ2VydGlmaWNhdGUgQXV0aG9yaXR5MRgwFgYD
VQQDDA9Vc2FjbG91ZCBUTFMgQ0EwggIiMA0GCSqGSIb3DQEBAQUAA4ICDwAwggIK
AoICAQCmtf4Ypjy43IpDg2ld4PjaU07+hZi/crzFrRvaWYOLuL4L03FiWWcFFq0q
bUmxsRY4j6BSU3E2jvlN8ixKgCs1IiLH5BxCi2faEsjv28dRKbaXbMurc2tiLf/3
9r8OyUdCqtZ8cM/F8YiJ+FUE3tJVrGaVZBjlUttDpNFeBzU6ltGEPvvaqrHbVF1V
w70pLD+cbOqP5VX0B94C5WsDsBPoW2UEDT1qQYuqD6bhqt0rrkwpHZNrCOBEWmcw
RgcrFprHlhdTXKyQhZ0j+TjfTCbkvwLXQkgCIkFBBLEdTH3IxuzeNl0x3ceg4aBA
IXTCwOu5uAmv7CQ3oY53JsMNheJBUIxZQJeX7tXm8lEEYJVUFRr9FhEUttneJb/l
BaewxjfcIzYsNyuHIKF8j/dgKr6UrrSWCY6DMS/Hr4e5i9DjH5T8aJ02vErwiljo
ROeegGorH4RevQGNMxD/L3zVhlqQaNRY8vKyW9VsExcRpcM4FPgGRXsg4pmpmTgH
wgYzXirBR3qJ6m/cerSV0vfjb0bYF6kGgr5jG3wXL/3kpaMR4m5pVVpCQQuCyFWN
ItuJb7i63OqYM8O0zpHPBbVSNG8iIW54VPxr8Q7H6U2Adv710jAJUWq3hGO3kggz
P7fA70vy9KifcQr6FzY4q1m+7thasS5dKKPKZzyRepmpqtlitQIDAQABMA0GCSqG
SIb3DQEBCwUAA4ICAQARIKmWWNQMRVYKMnAfNioYJagtVLmQlA2e57EMrF0H4+Ar
nb3+7c0dZayaFnXqu7HgpIRkLbsR3eRqtBj1eAwO5oZYJgV+XFW+Ut9IsEUCg8Fn
V70721zznDeGS6sihHSpYYB/4zXk1aKay/ym0KjmrcULcti9A7k1LqcnP9rCH1vz
1pubRK9RcdlZh4lSbMns5M6Tg1A9d2n4Hcl1V6kjqGQNSdixSzu5649v1WNA+a+j
8+YYgWlSGHhYSGAKrFNy7tA7bqT++twEyFAZmkPvajwUP6iCIaZ+E2UcV4iaxHe9
ig1b7rkjvZr14I+zfcAaKnG9j+Fo7DoGbYXVu3JOZDx9O9BLxoKwZym2tQHTG/Xm
4dxHjI8x/Ai+u3pKmk7X3n27Zskck34xZ4tHYUhVPWJ38nRtIqoFM1aKOUg86rni
03D6WMtlq0Wt++QiJ7xYekyjxVECzWeBL6tdLcmfCiiNk8qaY/2h8pp3va7SiaGC
I0XQChSHuI9/90p/rIXjMjsBY7NGV98SED2LTNz6gsy9Q3TSfSfGV9Uap0L4wtsT
vUYHsSuXPLGq5CvnYymFVZ027vNLFzSbcYhXD/4c3f5eKWI4fwyG5+lJcyjhPsjl
vKez+s5m8/LxeozFo9b7w0YTYge4bb1h8uyCXd4HCU4cBFQ3wRinnt7/84Vg5A==
-----END CERTIFICATE-----
