Certificate:
    Data:
        Version: 1 (0x0)
        Serial Number: 1 (0x1)
    Signature Algorithm: sha256WithRSAEncryption
        Issuer: C=JP, O=Usacloud, OU=Usacloud Certificate Authority, CN=Usacloud TLS CA
        Validity
            Not Before: Jun 26 13:09:32 2021 GMT
            Not After : Jun 21 13:09:32 2041 GMT
        Subject: C=JP, O=Usacloud, OU=Usacloud Certificate Authority, CN=Usacloud TLS CA
        Subject Public Key Info:
            Public Key Algorithm: rsaEncryption
                Public-Key: (4096 bit)
                Modulus:
                    00:cc:69:31:4b:d7:a2:46:7e:95:06:ef:93:7f:3f:
                    ba:15:73:8c:b3:4b:d8:4d:33:88:7d:e3:7b:e0:25:
                    26:6b:18:7d:26:48:b3:fd:21:2b:82:d4:6a:c3:4b:
                    c1:f4:ac:46:14:11:5c:6d:de:2e:c0:1f:e6:23:52:
                    f2:be:fa:75:3a:15:64:4d:ed:8c:5e:6a:b1:51:46:
                    73:d4:ae:8d:73:af:53:d0:c0:22:48:c3:94:68:3a:
                    a5:f2:75:3d:0c:16:06:dc:9d:cf:1b:cf:cc:2e:fa:
                    57:77:d9:5e:30:1b:02:a8:73:92:b8:fb:d9:7d:e9:
                    79:dc:1f:0e:fa:76:de:42:94:82:d6:47:a7:9a:c0:
                    db:92:8c:5f:cc:e1:34:00:3c:10:07:73:c9:fc:6c:
                    fa:48:da:5b:d2:7b:ab:39:ee:ac:39:82:e9:14:7a:
                    5b:f6:be:eb:bb:b8:07:36:0e:b5:4f:72:11:71:e3:
                    b0:c7:66:d5:07:84:1e:cc:6c:f1:c8:c6:8f:35:7f:
                    64:19:22:18:75:10:68:2d:7c:fb:3a:ff:d1:6b:f7:
                    92:0d:9c:b4:d2:ed:58:c1:20:8f:88:e9:ba:dc:9c:
                    98:b6:ef:81:6c:27:96:21:49:08:d4:f4:b0:1b:92:
                    ce:e9:70:8c:2b:2b:b2:e7:ca:cc:33:e7:73:84:b1:
                    a7:b2:4a:a0:76:82:b8:a9:ca:04:95:37:47:47:bf:
                    d7:68:af:9b:74:80:af:18:bb:17:26:62:fe:87:33:
                    be:93:f0:8d:42:a0:78:3e:76:c8:c5:1a:a4:5c:77:
                    2a:63:d8:9a:a6:8f:e5:15:16:97:cf:f4:4e:59:33:
                    9a:24:c0:eb:58:85:12:b0:42:da:8b:7e:91:b4:74:
                    7b:50:03:79:2c:5a:2d:23:72:66:92:b0:64:bd:e4:
                    87:e9:d9:6b:0d:ba:dc:d7:c7:f7:0c:a5:ea:1a:7d:
                    33:d3:a0:9c:93:5c:4d:03:b6:1f:62:16:75:e9:5d:
                    a5:12:3b:5e:fa:38:77:3d:1d:11:b8:a6:8c:cd:16:
                    62:ff:eb:ac:82:1a:87:aa:14:0e:be:fc:54:d5:62:
                    13:b2:7a:78:f7:1a:0a:d6:b4:57:47:79:aa:86:02:
                    91:e7:f2:3e:2a:b8:71:14:4e:ab:b9:c2:e9:2d:e8:
                    a3:5e:a9:8b:56:89:73:fe:ee:9f:0b:a9:08:e2:fd:
                    c6:24:99:a3:a3:af:39:47:81:f9:18:6c:aa:9f:ec:
                    57:33:c6:55:ae:ff:b9:9c:c3:a4:4e:77:e7:ca:f4:
                    22:16:99:3c:a1:66:59:4c:c7:9a:00:5c:85:a1:d7:
                    b8:09:bb:33:c5:eb:a2:15:11:f6:6f:4a:bc:db:49:
                    0e:54:8d
                Exponent: 65537 (0x10001)
    Signature Algorithm: sha256WithRSAEncryption
         95:d7:42:44:0a:43:b9:8a:d2:fa:e7:9f:6f:78:ba:81:72:72:
         a4:ed:ea:9d:b8:8c:b5:d7:69:21:10:1f:2a:5f:72:7b:c0:83:
         55:c7:b6:3a:d1:8e:6c:e2:43:c8:64:4e:26:64:aa:ff:94:d4:
         49:56:ff:85:05:df:24:2c:82:e9:9d:a4:b5:55:ba:36:d6:e6:
         4a:26:91:b7:b8:bb:cb:31:41:4d:ce:fe:f1:ce:f2:50:ed:68:
         52:6e:59:13:4c:7d:42:4c:80:e3:df:3d:3c:5f:1e:8e:6b:a7:
         15:7d:fb:73:9e:cf:38:0b:9d:ce:94:a7:90:1a:f1:9d:68:04:
         a6:e8:59:b7:d2:f6:8e:02:af:23:b9:fc:39:b0:f3:39:b0:aa:
         09:5f:96:c5:a6:dd:5f:b4:0d:89:7a:ef:52:1c:6d:42:24:77:
         16:2d:96:09:f3:b6:0d:64:29:b8:0f:36:43:e0:5b:6a:11:e0:
         d6:44:ef:e2:71:bc:52:74:16:55:d8:b3:14:6d:44:b1:23:9e:
         e7:50:82:da:62:f4:57:70:fe:d8:5b:44:fb:13:8b:fd:bc:6e:
         04:61:72:45:83:6e:b8:79:60:4b:bb:4f:82:65:1e:cc:2b:8e:
         b8:69:c7:3e:0c:7c:ef:7d:bf:c7:c2:e0:39:77:7b:7c:a3:ed:
         cf:cc:9a:ba:9e:e9:d4:9d:50:19:d3:ff:ac:f1:8e:1a:bf:d0:
         d8:1c:3a:61:2e:a2:6b:5e:2f:98:63:98:d6:8a:e3:c8:82:3f:
         68:57:f4:2f:37:c8:7f:1e:36:83:4b:56:96:55:af:5b:40:3f:
         7c:1e:e5:37:8e:86:9e:83:71:0b:a4:3a:a7:f4:24:43:07:cc:
         a9:d2:ff:50:68:59:d6:6f:d1:42:92:eb:22:eb:1f:a4:55:fd:
         ad:08:b9:a2:56:c2:ea:e9:a9:f6:22:c9:48:e5:44:6a:86:9b:
         8f:00:50:36:ac:67:b5:5c:1c:0c:2b:4c:db:49:dd:43:29:12:
         df:90:e2:71:91:b5:cb:ff:c0:b8:b2:18:2b:1e:c2:ed:f6:27:
         bd:fd:bf:08:56:af:b9:fd:ec:c0:25:58:93:ab:83:4c:c7:e6:
         c0:c0:4a:e6:7d:d0:16:bf:55:64:9c:34:b7:d7:90:fd:a6:4a:
         68:94:cd:5f:77:2a:ff:7f:c9:0f:72:ba:3c:1e:15:01:18:a4:
         83:c9:b7:01:6d:df:ca:eb:58:d5:2d:34:25:6f:1d:df:29:c7:
         40:61:4f:29:26:8d:3b:28:5c:b9:dd:e0:bc:d1:7e:7f:5a:ff:
         47:6a:af:f1:9e:95:1d:8a:5e:d5:f9:a9:3d:90:4d:0d:a2:2d:
         31:b9:ea:e9:10:4b:fc:9c
-----BEGIN CERTIFICATE-----
MIIFOjCCAyICAQEwDQYJKoZIhvcNAQELBQAwYzELMAkGA1UEBhMCSlAxETAPBgNV
BAoMCFVzYWNsb3VkMScwJQYDVQQLDB5Vc2FjbG91ZCBDZXJ0aWZpY2F0ZSBBdXRo
b3JpdHkxGDAWBgNVBAMMD1VzYWNsb3VkIFRMUyBDQTAeFw0yMTA2MjYxMzA5MzJa
Fw00MTA2MjExMzA5MzJaMGMxCzAJBgNVBAYTAkpQMREwDwYDVQQKDAhVc2FjbG91
ZDEnMCUGA1UECwweVXNhY2xvdWQgQ2VydGlmaWNhdGUgQXV0aG9yaXR5MRgwFgYD
VQQDDA9Vc2FjbG91ZCBUTFMgQ0EwggIiMA0GCSqGSIb3DQEBAQUAA4ICDwAwggIK
AoICAQDMaTFL16JGfpUG75N/P7oVc4yzS9hNM4h943vgJSZrGH0mSLP9ISuC1GrD
S8H0rEYUEVxt3i7AH+YjUvK++nU6FWRN7YxearFRRnPUro1zr1PQwCJIw5RoOqXy
dT0MFgbcnc8bz8wu+ld32V4wGwKoc5K4+9l96XncHw76dt5ClILWR6eawNuSjF/M
4TQAPBAHc8n8bPpI2lvSe6s57qw5gukUelv2vuu7uAc2DrVPchFx47DHZtUHhB7M
bPHIxo81f2QZIhh1EGgtfPs6/9Fr95INnLTS7VjBII+I6brcnJi274FsJ5YhSQjU
9LAbks7pcIwrK7Lnyswz53OEsaeySqB2gripygSVN0dHv9dor5t0gK8YuxcmYv6H
M76T8I1CoHg+dsjFGqRcdypj2Jqmj+UVFpfP9E5ZM5okwOtYhRKwQtqLfpG0dHtQ
A3ksWi0jcmaSsGS95Ifp2WsNutzXx/cMpeoafTPToJyTXE0Dth9iFnXpXaUSO176
OHc9HRG4pozNFmL/66yCGoeqFA6+/FTVYhOyenj3GgrWtFdHeaqGApHn8j4quHEU
Tqu5wukt6KNeqYtWiXP+7p8LqQji/cYkmaOjrzlHgfkYbKqf7FczxlWu/7mcw6RO
d+fK9CIWmTyhZllMx5oAXIWh17gJuzPF66IVEfZvSrzbSQ5UjQIDAQABMA0GCSqG
SIb3DQEBCwUAA4ICAQCV10JECkO5itL6559veLqBcnKk7eqduIy112khEB8qX3J7
wINVx7Y60Y5s4kPIZE4mZKr/lNRJVv+FBd8kLILpnaS1Vbo21uZKJpG3uLvLMUFN
zv7xzvJQ7WhSblkTTH1CTIDj3z08Xx6Oa6cVfftzns84C53OlKeQGvGdaASm6Fm3
0vaOAq8jufw5sPM5sKoJX5bFpt1ftA2Jeu9SHG1CJHcWLZYJ87YNZCm4DzZD4Ftq
EeDWRO/icbxSdBZV2LMUbUSxI57nUILaYvRXcP7YW0T7E4v9vG4EYXJFg264eWBL
u0+CZR7MK464acc+DHzvfb/HwuA5d3t8o+3PzJq6nunUnVAZ0/+s8Y4av9DYHDph
LqJrXi+YY5jWiuPIgj9oV/QvN8h/HjaDS1aWVa9bQD98HuU3joaeg3ELpDqn9CRD
B8yp0v9QaFnWb9FCkusi6x+kVf2tCLmiVsLq6an2IslI5URqhpuPAFA2rGe1XBwM
K0zbSd1DKRLfkOJxkbXL/8C4shgrHsLt9ie9/b8IVq+5/ezAJViTq4NMx+bAwErm
fdAWv1VknDS315D9pkpolM1fdyr/f8kPcro8HhUBGKSDybcBbd/K61jVLTQlbx3f
KcdAYU8pJo07KFy53eC80X5/Wv9Haq/xnpUdil7V+ak9kE0Noi0xuerpEEv8nA==
-----END CERTIFICATE-----
