Certificate:
    Data:
        Version: 1 (0x0)
        Serial Number: 12679009169318117922 (0xaff4e3a9c9208222)
    Signature Algorithm: sha256WithRSAEncryption
        Issuer: C=JP, O=Usacloud, OU=Usacloud Certificate Authority, CN=Usacloud TLS CA
        Validity
            Not Before: Jun 25 12:35:43 2021 GMT
            Not After : Jun 20 12:35:43 2041 GMT
        Subject: C=JP, O=Usacloud, OU=Usacloud Certificate Authority, CN=Usacloud TLS CA
        Subject Public Key Info:
            Public Key Algorithm: rsaEncryption
                Public-Key: (4096 bit)
                Modulus:
                    00:bd:66:50:4f:3a:3e:31:6b:36:38:18:31:8e:d7:
                    a1:54:0c:0c:48:c7:30:7e:dc:4d:73:84:a9:7d:1e:
                    2b:02:d2:86:95:b5:18:fc:da:fe:38:5d:fa:16:25:
                    30:02:9d:73:10:01:e9:23:ab:87:d2:0a:8b:4d:ff:
                    f9:d7:88:95:a3:03:30:b3:e3:48:e3:1d:a8:5f:4f:
                    fc:8f:f7:9f:6b:7b:a2:b0:42:69:16:73:90:19:f8:
                    61:b9:ad:4d:de:d0:14:b1:df:f4:58:46:90:00:90:
                    fc:37:3c:fa:98:55:9b:e3:b1:15:f8:da:17:4b:be:
                    c4:36:55:3c:97:77:5e:8c:98:a6:b7:58:0c:f3:7e:
                    5f:51:ec:9f:f2:b0:44:0c:35:f5:ae:03:bf:4f:32:
                    9d:ab:3f:49:19:ab:06:c6:20:c6:6d:72:f0:8d:5e:
                    6e:0c:00:fe:92:05:99:2f:8a:0c:60:e5:81:a3:7e:
                    7b:cd:91:e6:5e:4c:24:cf:90:32:15:47:74:71:cc:
                    e2:03:93:b4:95:4a:23:76:e9:76:c7:3b:45:47:a6:
                    9b:89:f2:77:c3:6b:0d:9c:e2:07:35:e5:1d:d4:be:
                    20:77:6a:70:88:99:01:14:a9:95:aa:78:5c:5d:b2:
                    71:4b:ea:26:b5:50:fc:86:fa:72:af:ae:01:ea:9c:
                    11:ff:f4:bc:0b:b9:ce:47:65:93:fb:79:9b:f7:64:
                    72:ec:7d:90:06:d7:98:c4:25:7a:a1:e1:54:1c:80:
                    ac:be:d2:ca:dd:30:92:8a:7b:81:76:6a:06:ac:40:
                    3b:96:24:54:c0:0c:03:3e:58:2f:e9:ce:0f:cd:15:
                    db:1c:fc:5a:88:74:9c:28:2d:68:68:ad:46:eb:3f:
                    4f:9d:75:a5:03:76:38:c2:22:b4:b2:3b:9e:64:e3:
                    9b:09:13:12:be:e3:48:6e:64:d7:e5:9a:d1:c6:41:
                    80:e5:7c:d9:9d:d0:85:85:94:0a:ee:51:8c:e0:bb:
                    2b:a0:22:08:3e:0e:23:6f:46:6c:c1:62:72:0d:ba:
                    16:92:94:28:5a:f3:52:35:78:1e:57:8a:d0:b5:17:
                    6f:44:0e:09:81:dc:4b:da:2e:24:cf:d1:dc:6a:cc:
                    f7:e1:04:27:3e:e8:db:65:3a:07:83:04:86:d6:c7:
                    15:07:80:c4:08:f6:21:6b:95:9f:5c:92:f7:c8:23:
                    0d:6b:9c:16:4e:29:c2:eb:aa:9a:70:86:a9:da:47:
                    49:3f:04:e7:a2:25:ea:c7:73:16:d6:02:ef:5a:06:
                    d0:01:d0:f9:a9:c5:db:81:79:98:b1:a8:10:22:01:
                    7a:96:1e:5a:2b:31:83:7b:ab:ea:c6:c1:7a:07:12:
                    c5:23:c7
                Exponent: 65537 (0x10001)
    Signature Algorithm: sha256WithRSAEncryption
         09:bf:25:bc:36:d3:b8:7d:73:6e:0c:57:41:88:06:32:91:7f:
         30:79:76:5a:c9:63:ac:f4:f7:fd:c1:5f:d3:a2:ad:01:59:eb:
         b0:85:15:de:88:7c:a2:c4:8e:be:aa:8a:e5:b9:9f:82:43:21:
         35:2e:14:b0:51:f7:85:67:86:06:05:e7:76:35:3d:15:a0:0c:
         5f:9e:12:7e:dd:db:51:eb:56:89:89:1c:ca:87:84:28:80:6f:
         e2:77:54:95:fd:d8:8b:3e:e2:43:ad:36:a8:eb:83:85:b6:57:
         a0:b5:b6:54:4e:cc:59:07:1b:5b:69:38:95:74:fd:29:5c:ff:
         14:a2:7f:37:5a:7d:4b:13:be:d6:e5:89:6c:23:61:5a:2d:b9:
         b1:22:be:12:8d:c7:c8:1d:a3:9c:9b:32:c6:d4:74:46:ec:74:
         60:91:32:ea:2c:04:54:39:23:8d:81:c3:76:c8:49:8a:8b:39:
         8f:64:01:c7:56:d5:77:e7:96:09:d4:6a:b4:ad:92:9f:f9:20:
         d0:7c:48:fe:c5:cd:a7:0a:2c:39:9d:5f:be:84:24:53:b2:66:
         a4:d1:30:7a:a5:ca:7c:2c:7e:02:b1:36:61:3b:20:47:8f:23:
         51:20:15:e2:60:1d:f9:59:99:ad:59:d4:e3:d2:39:67:3e:4a:
         01:0f:ac:39:02:89:5f:66:9b:5a:af:08:2b:16:dc:b1:4c:ce:
         cf:37:62:77:90:ce:a9:57:3d:d6:cb:c4:57:0e:ea:21:d7:7d:
         bc:14:0f:e9:34:f7:47:7a:c9:15:3b:8a:52:9b:b7:4b:36:93:
         0e:65:5a:98:25:07:ba:b6:03:3c:dd:35:3e:6d:54:d4:0b:cf:
         6f:d4:f9:9f:3c:fa:9d:e0:e2:e8:0a:e7:6f:1a:61:f6:89:e9:
         53:9a:40:be:09:41:cf:cb:05:c4:9a:53:a6:c2:34:54:62:a8:
         f5:3e:4d:66:ff:26:d4:30:51:d1:eb:b7:29:87:bb:f8:b7:46:
         06:b7:4a:a2:f0:6c:9e:28:19:94:71:f3:be:b7:2e:5a:2a:a7:
         87:56:c5:7a:fd:23:65:6a:ba:41:58:98:4f:53:3d:35:00:7f:
         31:e2:5c:ba:85:ad:b7:9d:bf:b5:23:20:ca:8f:13:fa:9c:00:
         43:8e:53:2b:96:43:cd:8d:e3:3f:8d:56:33:e2:c8:97:94:49:
         cc:0f:9b:6c:9c:d8:0f:e8:20:36:b2:22:f1:1b:bf:a8:e7:ea:
         d7:1e:fc:ec:40:d3:7d:b9:00:b4:22:c3:86:04:68:d9:15:a4:
         69:06:c1:de:5c:08:14:7a:de:15:54:78:0b:05:2e:01:0d:7e:
         2e:37:af:39:98:cf:5c:41
-----BEGIN CERTIFICATE-----
MIIFQjCCAyoCCQCv9OOpySCCIjANBgkqhkiG9w0BAQsFADBjMQswCQYDVQQGEwJK
UDERMA8GA1UECgwIVXNhY2xvdWQxJzAlBgNVBAsMHlVzYWNsb3VkIENlcnRpZmlj
YXRlIEF1dGhvcml0eTEYMBYGA1UEAwwPVXNhY2xvdWQgVExTIENBMB4XDTIxMDYy
NTEyMzU0M1oXDTQxMDYyMDEyMzU0M1owYzELMAkGA1UEBhMCSlAxETAPBgNVBAoM
CFVzYWNsb3VkMScwJQYDVQQLDB5Vc2FjbG91ZCBDZXJ0aWZpY2F0ZSBBdXRob3Jp
dHkxGDAWBgNVBAMMD1VzYWNsb3VkIFRMUyBDQTCCAiIwDQYJKoZIhvcNAQEBBQAD
ggIPADCCAgoCggIBAL1mUE86PjFrNjgYMY7XoVQMDEjHMH7cTXOEqX0eKwLShpW1
GPza/jhd+hYlMAKdcxAB6SOrh9IKi03/+deIlaMDMLPjSOMdqF9P/I/3n2t7orBC
aRZzkBn4YbmtTd7QFLHf9FhGkACQ/Dc8+phVm+OxFfjaF0u+xDZVPJd3XoyYprdY
DPN+X1Hsn/KwRAw19a4Dv08ynas/SRmrBsYgxm1y8I1ebgwA/pIFmS+KDGDlgaN+
e82R5l5MJM+QMhVHdHHM4gOTtJVKI3bpdsc7RUemm4nyd8NrDZziBzXlHdS+IHdq
cIiZARSplap4XF2ycUvqJrVQ/Ib6cq+uAeqcEf/0vAu5zkdlk/t5m/dkcux9kAbX
mMQleqHhVByArL7Syt0wkop7gXZqBqxAO5YkVMAMAz5YL+nOD80V2xz8Woh0nCgt
aGitRus/T511pQN2OMIitLI7nmTjmwkTEr7jSG5k1+Wa0cZBgOV82Z3QhYWUCu5R
jOC7K6AiCD4OI29GbMFicg26FpKUKFrzUjV4HleK0LUXb0QOCYHcS9ouJM/R3GrM
9+EEJz7o22U6B4MEhtbHFQeAxAj2IWuVn1yS98gjDWucFk4pwuuqmnCGqdpHST8E
56Il6sdzFtYC71oG0AHQ+anF24F5mLGoECIBepYeWisxg3ur6sbBegcSxSPHAgMB
AAEwDQYJKoZIhvcNAQELBQADggIBAAm/Jbw207h9c24MV0GIBjKRfzB5dlrJY6z0
9/3BX9OirQFZ67CFFd6IfKLEjr6qiuW5n4JDITUuFLBR94VnhgYF53Y1PRWgDF+e
En7d21HrVomJHMqHhCiAb+J3VJX92Is+4kOtNqjrg4W2V6C1tlROzFkHG1tpOJV0
/Slc/xSifzdafUsTvtbliWwjYVotubEivhKNx8gdo5ybMsbUdEbsdGCRMuosBFQ5
I42Bw3bISYqLOY9kAcdW1XfnlgnUarStkp/5INB8SP7FzacKLDmdX76EJFOyZqTR
MHqlynwsfgKxNmE7IEePI1EgFeJgHflZma1Z1OPSOWc+SgEPrDkCiV9mm1qvCCsW
3LFMzs83YneQzqlXPdbLxFcO6iHXfbwUD+k090d6yRU7ilKbt0s2kw5lWpglB7q2
AzzdNT5tVNQLz2/U+Z88+p3g4ugK528aYfaJ6VOaQL4JQc/LBcSaU6bCNFRiqPU+
TWb/JtQwUdHrtymHu/i3Rga3SqLwbJ4oGZRx8763Lloqp4dWxXr9I2VqukFYmE9T
PTUAfzHiXLqFrbedv7UjIMqPE/qcAEOOUyuWQ82N4z+NVjPiyJeUScwPm2yc2A/o
IDayIvEbv6jn6tce/OxA0325ALQiw4YEaNkVpGkGwd5cCBR63hVUeAsFLgENfi43
rzmYz1xB
-----END CERTIFICATE-----
